target datalayout = "e-m:e-p270:32:32-p271:32:32-p272:64:64-i64:64-i128:128-f80:128-n8:16:32:64-S128"
target triple = "x86_64-pc-linux-gnu"

%struct.jpeg_compress_struct = type { ptr, ptr, ptr, ptr, i32, i32, ptr, i32, i32, i32, i32, double, i32, i32, i32, ptr, [4 x ptr], [4 x ptr], [4 x ptr], [16 x i8], [16 x i8], [16 x i8], i32, ptr, i32, i32, i32, i32, i32, i32, i32, i32, i32, i8, i8, i8, i16, i16, i32, i32, i32, i32, i32, i32, i32, [4 x ptr], i32, i32, i32, [10 x i32], i32, i32, i32, i32, ptr, ptr, ptr, ptr, ptr, ptr, ptr, ptr, ptr, ptr, i32 }
%struct.jpeg_memory_mgr = type { ptr, ptr, ptr, ptr, ptr, ptr, ptr, ptr, ptr, ptr, ptr, i64, i64 }
%struct.arith_entropy_encoder = type { %struct.jpeg_entropy_encoder, i64, i64, i64, i64, i32, i32, [4 x i32], [4 x i32], i32, i32, [16 x ptr], [16 x ptr], [4 x i8] }
%struct.jpeg_entropy_encoder = type { ptr, ptr, ptr, ptr }

; Function Attrs: nounwind uwtable
define void @jinit_arith_encoder(ptr noundef %0) #0 {
  %2 = alloca ptr, align 8
  %3 = alloca ptr, align 8
  %4 = alloca i32, align 4
  store ptr %0, ptr %2, align 8, !tbaa !3
  call void @llvm.lifetime.start.p0(i64 8, ptr %3) #3
  call void @llvm.lifetime.start.p0(i64 4, ptr %4) #3
  %5 = load ptr, ptr %2, align 8, !tbaa !3
  %6 = getelementptr inbounds nuw %struct.jpeg_compress_struct, ptr %5, i32 0, i32 1
  %7 = load ptr, ptr %6, align 8, !tbaa !8
  %8 = getelementptr inbounds nuw %struct.jpeg_memory_mgr, ptr %7, i32 0, i32 0
  %9 = load ptr, ptr %8, align 8, !tbaa !26
  %10 = load ptr, ptr %2, align 8, !tbaa !3
  %11 = call ptr %9(ptr noundef %10, i32 noundef 1, i64 noundef 376)
  store ptr %11, ptr %3, align 8, !tbaa !29
  %12 = load ptr, ptr %3, align 8, !tbaa !29
  %13 = load ptr, ptr %2, align 8, !tbaa !3
  %14 = getelementptr inbounds nuw %struct.jpeg_compress_struct, ptr %13, i32 0, i32 62
  store ptr %12, ptr %14, align 8, !tbaa !30
  %15 = load ptr, ptr %3, align 8, !tbaa !29
  %16 = getelementptr inbounds nuw %struct.arith_entropy_encoder, ptr %15, i32 0, i32 0
  %17 = getelementptr inbounds nuw %struct.jpeg_entropy_encoder, ptr %16, i32 0, i32 0
  store ptr @start_pass, ptr %17, align 8, !tbaa !31
  %18 = load ptr, ptr %3, align 8, !tbaa !29
  %19 = getelementptr inbounds nuw %struct.arith_entropy_encoder, ptr %18, i32 0, i32 0
  %20 = getelementptr inbounds nuw %struct.jpeg_entropy_encoder, ptr %19, i32 0, i32 3
  store ptr @finish_pass, ptr %20, align 8, !tbaa !34
  store i32 0, ptr %4, align 4, !tbaa !35
  br label %21

21:                                               ; preds = %35, %1
  %22 = load i32, ptr %4, align 4, !tbaa !35
  %23 = icmp slt i32 %22, 16
  br i1 %23, label %24, label %38

24:                                               ; preds = %21
  %25 = load ptr, ptr %3, align 8, !tbaa !29
  %26 = getelementptr inbounds nuw %struct.arith_entropy_encoder, ptr %25, i32 0, i32 11
  %27 = load i32, ptr %4, align 4, !tbaa !35
  %28 = sext i32 %27 to i64
  %29 = getelementptr inbounds [16 x ptr], ptr %26, i64 0, i64 %28
  store ptr null, ptr %29, align 8, !tbaa !36
  %30 = load ptr, ptr %3, align 8, !tbaa !29
  %31 = getelementptr inbounds nuw %struct.arith_entropy_encoder, ptr %30, i32 0, i32 12
  %32 = load i32, ptr %4, align 4, !tbaa !35
  %33 = sext i32 %32 to i64
  %34 = getelementptr inbounds [16 x ptr], ptr %31, i64 0, i64 %33
  store ptr null, ptr %34, align 8, !tbaa !36
  br label %35

35:                                               ; preds = %24
  %36 = load i32, ptr %4, align 4, !tbaa !35
  %37 = add nsw i32 %36, 1
  store i32 %37, ptr %4, align 4, !tbaa !35
  br label %21, !llvm.loop !38

38:                                               ; preds = %21
  %39 = load ptr, ptr %3, align 8, !tbaa !29
  %40 = getelementptr inbounds nuw %struct.arith_entropy_encoder, ptr %39, i32 0, i32 13
  %41 = getelementptr inbounds [4 x i8], ptr %40, i64 0, i64 0
  store i8 113, ptr %41, align 8, !tbaa !40
  call void @llvm.lifetime.end.p0(i64 4, ptr %4) #3
  call void @llvm.lifetime.end.p0(i64 8, ptr %3) #3
  ret void
}