; Function Attrs: nounwind uwtable
define void @jinit_arith_encoder(ptr noundef %0) local_unnamed_addr #0 {
  %2 = getelementptr inbounds nuw i8, ptr %0, i64 8
  %3 = load ptr, ptr %2, align 8, !tbaa !3
  %4 = load ptr, ptr %3, align 8, !tbaa !24
  %5 = tail call ptr %4(ptr noundef %0, i32 noundef 1, i64 noundef 376) #3
  %6 = getelementptr inbounds nuw i8, ptr %0, i64 496
  store ptr %5, ptr %6, align 8, !tbaa !27
  store ptr @start_pass, ptr %5, align 8, !tbaa !28
  %7 = getelementptr inbounds nuw i8, ptr %5, i64 24
  store ptr @finish_pass, ptr %7, align 8, !tbaa !31
  %8 = getelementptr inbounds nuw i8, ptr %5, i64 112
  %9 = getelementptr inbounds nuw i8, ptr %5, i64 368
  tail call void @llvm.memset.p0.i64(ptr noundef nonnull align 8 dereferenceable(256) %8, i8 0, i64 256, i1 false)
  store i8 113, ptr %9, align 8, !tbaa !32
  ret void
}